target datalayout = "e-m:e-p270:32:32-p271:32:32-p272:64:64-i64:64-i128:128-f80:128-n8:16:32:64-S128"
target triple = "x86_64-pc-linux-gnu"

%"struct.cv::rgb" = type { i8, i8, i8 }
%"class.std::__cxx11::basic_string" = type { %"struct.std::__cxx11::basic_string<char>::_Alloc_hider", i64, %union.anon }
%"struct.std::__cxx11::basic_string<char>::_Alloc_hider" = type { ptr }
%union.anon = type { i64, [8 x i8] }
%"class.cv::PngEncoder" = type <{ %"class.cv::BaseImageEncoder", %"class.cv::AutoBuffer.31", %"class.cv::AutoBuffer.31", %"class.cv::AutoBuffer.31", %"class.cv::AutoBuffer.31", %"class.cv::AutoBuffer.31", %"class.cv::AutoBuffer.31", %"class.cv::AutoBuffer.31", %struct.z_stream_s, %struct.z_stream_s, [6 x %"struct.cv::OP"], [256 x %"struct.cv::rgb"], [256 x i8], i32, i32, i32, [4 x i8] }>
%"class.cv::BaseImageEncoder" = type { ptr, %"class.std::__cxx11::basic_string", %"class.std::__cxx11::basic_string", ptr, i8, %"class.std::__cxx11::basic_string" }
%"class.cv::AutoBuffer.31" = type { ptr, i64, [1032 x i8] }
%struct.z_stream_s = type { ptr, i32, i64, ptr, i32, i64, ptr, ptr, ptr, ptr, ptr, i32, i64, i64 }
%"struct.cv::OP" = type { ptr, i32, i32, i32, i32, i32, i32, i32 }

@.str.13 = private unnamed_addr constant [7 x i8] c"1.2.11\00", align 1

; Function Attrs: mustprogress uwtable
define hidden void @_ZN2cv10PngEncoder14deflateRectFinEPhPjiiS1_ii(ptr noundef nonnull align 8 dereferenceable(8960) %0, ptr noundef %1, ptr noundef %2, i32 noundef %3, i32 noundef %4, ptr noundef %5, i32 noundef %6, i32 noundef %7) #5 align 2 {
  %9 = alloca ptr, align 8
  %10 = alloca ptr, align 8
  %11 = alloca ptr, align 8
  %12 = alloca i32, align 4
  %13 = alloca i32, align 4
  %14 = alloca ptr, align 8
  %15 = alloca i32, align 4
  %16 = alloca i32, align 4
  %17 = alloca ptr, align 8
  %18 = alloca i32, align 4
  %19 = alloca ptr, align 8
  %20 = alloca i32, align 4
  %21 = alloca %struct.z_stream_s, align 8
  store ptr %0, ptr %9, align 8, !tbaa !209
  store ptr %1, ptr %10, align 8, !tbaa !42
  store ptr %2, ptr %11, align 8, !tbaa !183
  store i32 %3, ptr %12, align 4, !tbaa !31
  store i32 %4, ptr %13, align 4, !tbaa !31
  store ptr %5, ptr %14, align 8, !tbaa !42
  store i32 %6, ptr %15, align 4, !tbaa !31
  store i32 %7, ptr %16, align 4, !tbaa !31
  %22 = load ptr, ptr %9, align 8
  call void @llvm.lifetime.start.p0(i64 8, ptr %17) #3
  %23 = getelementptr inbounds nuw %"class.cv::PngEncoder", ptr %22, i32 0, i32 10
  %24 = load i32, ptr %16, align 4, !tbaa !31
  %25 = sext i32 %24 to i64
  %26 = getelementptr inbounds [6 x %"struct.cv::OP"], ptr %23, i64 0, i64 %25
  %27 = getelementptr inbounds nuw %"struct.cv::OP", ptr %26, i32 0, i32 0
  %28 = load ptr, ptr %27, align 8, !tbaa !259
  %29 = getelementptr inbounds nuw %"class.cv::PngEncoder", ptr %22, i32 0, i32 10
  %30 = load i32, ptr %16, align 4, !tbaa !31
  %31 = sext i32 %30 to i64
  %32 = getelementptr inbounds [6 x %"struct.cv::OP"], ptr %29, i64 0, i64 %31
  %33 = getelementptr inbounds nuw %"struct.cv::OP", ptr %32, i32 0, i32 3
  %34 = load i32, ptr %33, align 8, !tbaa !266
  %35 = load i32, ptr %13, align 4, !tbaa !31
  %36 = mul nsw i32 %34, %35
  %37 = sext i32 %36 to i64
  %38 = getelementptr inbounds i8, ptr %28, i64 %37
  %39 = getelementptr inbounds nuw %"class.cv::PngEncoder", ptr %22, i32 0, i32 10
  %40 = load i32, ptr %16, align 4, !tbaa !31
  %41 = sext i32 %40 to i64
  %42 = getelementptr inbounds [6 x %"struct.cv::OP"], ptr %39, i64 0, i64 %41
  %43 = getelementptr inbounds nuw %"struct.cv::OP", ptr %42, i32 0, i32 2
  %44 = load i32, ptr %43, align 4, !tbaa !265
  %45 = load i32, ptr %12, align 4, !tbaa !31
  %46 = mul nsw i32 %44, %45
  %47 = sext i32 %46 to i64
  %48 = getelementptr inbounds i8, ptr %38, i64 %47
  store ptr %48, ptr %17, align 8, !tbaa !42
  call void @llvm.lifetime.start.p0(i64 4, ptr %18) #3
  %49 = getelementptr inbounds nuw %"class.cv::PngEncoder", ptr %22, i32 0, i32 10
  %50 = load i32, ptr %16, align 4, !tbaa !31
  %51 = sext i32 %50 to i64
  %52 = getelementptr inbounds [6 x %"struct.cv::OP"], ptr %49, i64 0, i64 %51
  %53 = getelementptr inbounds nuw %"struct.cv::OP", ptr %52, i32 0, i32 4
  %54 = load i32, ptr %53, align 4, !tbaa !267
  %55 = load i32, ptr %12, align 4, !tbaa !31
  %56 = mul nsw i32 %54, %55
  store i32 %56, ptr %18, align 4, !tbaa !31
  %57 = getelementptr inbounds nuw %"class.cv::PngEncoder", ptr %22, i32 0, i32 10
  %58 = load i32, ptr %16, align 4, !tbaa !31
  %59 = sext i32 %58 to i64
  %60 = getelementptr inbounds [6 x %"struct.cv::OP"], ptr %57, i64 0, i64 %59
  %61 = getelementptr inbounds nuw %"struct.cv::OP", ptr %60, i32 0, i32 7
  %62 = load i32, ptr %61, align 8, !tbaa !264
  %63 = icmp eq i32 %62, 0
  br i1 %63, label %64, label %95

64:                                               ; preds = %8
  call void @llvm.lifetime.start.p0(i64 8, ptr %19) #3
  %65 = load ptr, ptr %14, align 8, !tbaa !42
  store ptr %65, ptr %19, align 8, !tbaa !42
  call void @llvm.lifetime.start.p0(i64 4, ptr %20) #3
  store i32 0, ptr %20, align 4, !tbaa !31
  br label %66

66:                                               ; preds = %91, %64
  %67 = load i32, ptr %20, align 4, !tbaa !31
  %68 = getelementptr inbounds nuw %"class.cv::PngEncoder", ptr %22, i32 0, i32 10
  %69 = load i32, ptr %16, align 4, !tbaa !31
  %70 = sext i32 %69 to i64
  %71 = getelementptr inbounds [6 x %"struct.cv::OP"], ptr %68, i64 0, i64 %70
  %72 = getelementptr inbounds nuw %"struct.cv::OP", ptr %71, i32 0, i32 5
  %73 = load i32, ptr %72, align 8, !tbaa !268
  %74 = icmp slt i32 %67, %73
  br i1 %74, label %76, label %75

75:                                               ; preds = %66
  call void @llvm.lifetime.end.p0(i64 4, ptr %20) #3
  br label %94

76:                                               ; preds = %66
  %77 = load ptr, ptr %19, align 8, !tbaa !42
  %78 = getelementptr inbounds nuw i8, ptr %77, i32 1
  store ptr %78, ptr %19, align 8, !tbaa !42
  store i8 0, ptr %77, align 1, !tbaa !48
  %79 = load ptr, ptr %19, align 8, !tbaa !42
  %80 = load ptr, ptr %17, align 8, !tbaa !42
  %81 = load i32, ptr %18, align 4, !tbaa !31
  %82 = sext i32 %81 to i64
  call void @llvm.memcpy.p0.p0.i64(ptr align 1 %79, ptr align 1 %80, i64 %82, i1 false)
  %83 = load i32, ptr %18, align 4, !tbaa !31
  %84 = load ptr, ptr %19, align 8, !tbaa !42
  %85 = sext i32 %83 to i64
  %86 = getelementptr inbounds i8, ptr %84, i64 %85
  store ptr %86, ptr %19, align 8, !tbaa !42
  %87 = load i32, ptr %13, align 4, !tbaa !31
  %88 = load ptr, ptr %17, align 8, !tbaa !42
  %89 = sext i32 %87 to i64
  %90 = getelementptr inbounds i8, ptr %88, i64 %89
  store ptr %90, ptr %17, align 8, !tbaa !42
  br label %91

91:                                               ; preds = %76
  %92 = load i32, ptr %20, align 4, !tbaa !31
  %93 = add nsw i32 %92, 1
  store i32 %93, ptr %20, align 4, !tbaa !31
  br label %66, !llvm.loop !281

94:                                               ; preds = %75
  call void @llvm.lifetime.end.p0(i64 8, ptr %19) #3
  br label %107

95:                                               ; preds = %8
  %96 = load ptr, ptr %17, align 8, !tbaa !42
  %97 = load i32, ptr %18, align 4, !tbaa !31
  %98 = load i32, ptr %12, align 4, !tbaa !31
  %99 = load i32, ptr %13, align 4, !tbaa !31
  %100 = getelementptr inbounds nuw %"class.cv::PngEncoder", ptr %22, i32 0, i32 10
  %101 = load i32, ptr %16, align 4, !tbaa !31
  %102 = sext i32 %101 to i64
  %103 = getelementptr inbounds [6 x %"struct.cv::OP"], ptr %100, i64 0, i64 %102
  %104 = getelementptr inbounds nuw %"struct.cv::OP", ptr %103, i32 0, i32 5
  %105 = load i32, ptr %104, align 8, !tbaa !268
  %106 = load ptr, ptr %14, align 8, !tbaa !42
  call void @_ZN2cv10PngEncoder11processRectEPhiiiiS1_(ptr noundef nonnull align 8 dereferenceable(8960) %22, ptr noundef %96, i32 noundef %97, i32 noundef %98, i32 noundef %99, i32 noundef %105, ptr noundef %106)
  br label %107

107:                                              ; preds = %95, %94
  call void @llvm.lifetime.start.p0(i64 112, ptr %21) #3
  %108 = getelementptr inbounds nuw %struct.z_stream_s, ptr %21, i32 0, i32 11
  store i32 0, ptr %108, align 8, !tbaa !282
  %109 = getelementptr inbounds nuw %struct.z_stream_s, ptr %21, i32 0, i32 8
  store ptr null, ptr %109, align 8, !tbaa !283
  %110 = getelementptr inbounds nuw %struct.z_stream_s, ptr %21, i32 0, i32 9
  store ptr null, ptr %110, align 8, !tbaa !284
  %111 = getelementptr inbounds nuw %struct.z_stream_s, ptr %21, i32 0, i32 10
  store ptr null, ptr %111, align 8, !tbaa !285
  %112 = getelementptr inbounds nuw %"class.cv::PngEncoder", ptr %22, i32 0, i32 10
  %113 = load i32, ptr %16, align 4, !tbaa !31
  %114 = sext i32 %113 to i64
  %115 = getelementptr inbounds [6 x %"struct.cv::OP"], ptr %112, i64 0, i64 %114
  %116 = getelementptr inbounds nuw %"struct.cv::OP", ptr %115, i32 0, i32 7
  %117 = load i32, ptr %116, align 8, !tbaa !264
  %118 = icmp ne i32 %117, 0
  %119 = select i1 %118, i32 1, i32 0
  %120 = call i32 @deflateInit2_(ptr noundef %21, i32 noundef 9, i32 noundef 8, i32 noundef 15, i32 noundef 8, i32 noundef %119, ptr noundef @.str.13, i32 noundef 112)
  %121 = load ptr, ptr %10, align 8, !tbaa !42
  %122 = getelementptr inbounds nuw %struct.z_stream_s, ptr %21, i32 0, i32 3
  store ptr %121, ptr %122, align 8, !tbaa !286
  %123 = load i32, ptr %15, align 4, !tbaa !31
  %124 = getelementptr inbounds nuw %struct.z_stream_s, ptr %21, i32 0, i32 4
  store i32 %123, ptr %124, align 8, !tbaa !287
  %125 = load ptr, ptr %14, align 8, !tbaa !42
  %126 = getelementptr inbounds nuw %struct.z_stream_s, ptr %21, i32 0, i32 0
  store ptr %125, ptr %126, align 8, !tbaa !288
  %127 = getelementptr inbounds nuw %"class.cv::PngEncoder", ptr %22, i32 0, i32 10
  %128 = load i32, ptr %16, align 4, !tbaa !31
  %129 = sext i32 %128 to i64
  %130 = getelementptr inbounds [6 x %"struct.cv::OP"], ptr %127, i64 0, i64 %129
  %131 = getelementptr inbounds nuw %"struct.cv::OP", ptr %130, i32 0, i32 5
  %132 = load i32, ptr %131, align 8, !tbaa !268
  %133 = load i32, ptr %18, align 4, !tbaa !31
  %134 = add nsw i32 %133, 1
  %135 = mul nsw i32 %132, %134
  %136 = getelementptr inbounds nuw %struct.z_stream_s, ptr %21, i32 0, i32 1
  store i32 %135, ptr %136, align 8, !tbaa !289
  %137 = call i32 @deflate(ptr noundef %21, i32 noundef 4)
  %138 = getelementptr inbounds nuw %struct.z_stream_s, ptr %21, i32 0, i32 5
  %139 = load i64, ptr %138, align 8, !tbaa !290
  %140 = trunc i64 %139 to i32
  %141 = load ptr, ptr %11, align 8, !tbaa !183
  store i32 %140, ptr %141, align 4, !tbaa !31
  %142 = call i32 @deflateEnd(ptr noundef %21)
  call void @llvm.lifetime.end.p0(i64 112, ptr %21) #3
  call void @llvm.lifetime.end.p0(i64 4, ptr %18) #3
  call void @llvm.lifetime.end.p0(i64 8, ptr %17) #3
  ret void
}