; Function Attrs: mustprogress uwtable
define hidden void @_ZN2cv10PngEncoder14deflateRectFinEPhPjiiS1_ii(ptr noundef nonnull align 8 dereferenceable(8960) %0, ptr noundef %1, ptr noundef writeonly captures(none) %2, i32 noundef %3, i32 noundef %4, ptr noundef %5, i32 noundef %6, i32 noundef %7) local_unnamed_addr #5 align 2 {
  %9 = alloca %struct.z_stream_s, align 8
  %10 = getelementptr inbounds nuw i8, ptr %0, i64 7680
  %11 = sext i32 %7 to i64
  %12 = getelementptr inbounds [6 x %"struct.cv::OP"], ptr %10, i64 0, i64 %11
  %13 = load ptr, ptr %12, align 8, !tbaa !255
  %14 = getelementptr inbounds nuw i8, ptr %12, i64 16
  %15 = load i32, ptr %14, align 8, !tbaa !262
  %16 = mul nsw i32 %15, %4
  %17 = sext i32 %16 to i64
  %18 = getelementptr inbounds i8, ptr %13, i64 %17
  %19 = getelementptr inbounds nuw i8, ptr %12, i64 12
  %20 = load i32, ptr %19, align 4, !tbaa !261
  %21 = mul nsw i32 %20, %3
  %22 = sext i32 %21 to i64
  %23 = getelementptr inbounds i8, ptr %18, i64 %22
  %24 = getelementptr inbounds nuw i8, ptr %12, i64 20
  %25 = load i32, ptr %24, align 4, !tbaa !263
  %26 = mul nsw i32 %25, %3
  %27 = getelementptr inbounds nuw i8, ptr %12, i64 32
  %28 = load i32, ptr %27, align 8, !tbaa !260
  %29 = icmp eq i32 %28, 0
  %30 = getelementptr inbounds nuw i8, ptr %12, i64 24
  %31 = load i32, ptr %30, align 8, !tbaa !264
  br i1 %29, label %.preheader, label %42

.preheader:                                       ; preds = %8
  %32 = icmp sgt i32 %31, 0
  br i1 %32, label %.lr.ph, label %.loopexit

.lr.ph:                                           ; preds = %.preheader
  %33 = sext i32 %26 to i64
  %34 = sext i32 %4 to i64
  br label %35

35:                                               ; preds = %.lr.ph, %35
  %.037 = phi i32 [ 0, %.lr.ph ], [ %39, %35 ]
  %.03336 = phi ptr [ %5, %.lr.ph ], [ %37, %35 ]
  %.03435 = phi ptr [ %23, %.lr.ph ], [ %38, %35 ]
  %36 = getelementptr inbounds nuw i8, ptr %.03336, i64 1
  store i8 0, ptr %.03336, align 1, !tbaa !121
  tail call void @llvm.memcpy.p0.p0.i64(ptr nonnull align 1 %36, ptr align 1 %.03435, i64 %33, i1 false)
  %37 = getelementptr inbounds i8, ptr %36, i64 %33
  %38 = getelementptr inbounds i8, ptr %.03435, i64 %34
  %39 = add nuw nsw i32 %.037, 1
  %40 = load i32, ptr %30, align 8, !tbaa !264
  %41 = icmp slt i32 %39, %40
  br i1 %41, label %35, label %.loopexit, !llvm.loop !275

42:                                               ; preds = %8
  tail call void @_ZN2cv10PngEncoder11processRectEPhiiiiS1_(ptr noundef nonnull align 8 dereferenceable(8960) %0, ptr noundef %23, i32 noundef %26, i32 noundef %3, i32 noundef %4, i32 noundef %31, ptr noundef %5)
  br label %.loopexit

.loopexit:                                        ; preds = %35, %.preheader, %42
  call void @llvm.lifetime.start.p0(i64 112, ptr nonnull %9) #33
  %43 = getelementptr inbounds nuw i8, ptr %9, i64 64
  call void @llvm.memset.p0.i64(ptr noundef nonnull align 8 dereferenceable(28) %43, i8 0, i64 28, i1 false)
  %44 = load i32, ptr %27, align 8, !tbaa !260
  %.not = icmp ne i32 %44, 0
  %45 = zext i1 %.not to i32
  %46 = call i32 @deflateInit2_(ptr noundef nonnull %9, i32 noundef 9, i32 noundef 8, i32 noundef 15, i32 noundef 8, i32 noundef %45, ptr noundef nonnull @.str.13, i32 noundef 112)
  %47 = getelementptr inbounds nuw i8, ptr %9, i64 24
  store ptr %1, ptr %47, align 8, !tbaa !276
  %48 = getelementptr inbounds nuw i8, ptr %9, i64 32
  store i32 %6, ptr %48, align 8, !tbaa !277
  store ptr %5, ptr %9, align 8, !tbaa !278
  %49 = getelementptr inbounds nuw i8, ptr %12, i64 24
  %50 = load i32, ptr %49, align 8, !tbaa !264
  %51 = add nsw i32 %26, 1
  %52 = mul nsw i32 %50, %51
  %53 = getelementptr inbounds nuw i8, ptr %9, i64 8
  store i32 %52, ptr %53, align 8, !tbaa !279
  %54 = call i32 @deflate(ptr noundef nonnull %9, i32 noundef 4)
  %55 = getelementptr inbounds nuw i8, ptr %9, i64 40
  %56 = load i64, ptr %55, align 8, !tbaa !280
  %57 = trunc i64 %56 to i32
  store i32 %57, ptr %2, align 4, !tbaa !137
  %58 = call i32 @deflateEnd(ptr noundef nonnull %9)
  call void @llvm.lifetime.end.p0(i64 112, ptr nonnull %9) #33
  ret void
}